target datalayout = "e-m:e-p270:32:32-p271:32:32-p272:64:64-i64:64-i128:128-f80:128-n8:16:32:64-S128"
target triple = "x86_64-pc-linux-gnu"

%struct._lv_draw_buf_t = type { %struct.lv_image_header_t, i32, ptr, ptr, ptr }
%struct.lv_image_header_t = type <{ i64, i32 }>

; Function Attrs: nounwind uwtable
define void @lv_draw_buf_clear_flag(ptr noundef %0, i32 noundef %1) #0 {
  %3 = alloca ptr, align 8
  %4 = alloca i32, align 4
  store ptr %0, ptr %3, align 8, !tbaa !22
  store i32 %1, ptr %4, align 4, !tbaa !18
  %5 = load i32, ptr %4, align 4, !tbaa !18
  %6 = xor i32 %5, -1
  %7 = load ptr, ptr %3, align 8, !tbaa !22
  %8 = getelementptr inbounds nuw %struct._lv_draw_buf_t, ptr %7, i32 0, i32 0
  %9 = load i64, ptr %8, align 8
  %10 = lshr i64 %9, 16
  %11 = and i64 %10, 65535
  %12 = trunc i64 %11 to i32
  %13 = and i32 %12, %6
  %14 = zext i32 %13 to i64
  %15 = load i64, ptr %8, align 8
  %16 = and i64 %14, 65535
  %17 = shl i64 %16, 16
  %18 = and i64 %15, -4294901761
  %19 = or i64 %18, %17
  store i64 %19, ptr %8, align 8
  ret void
}