; Function Attrs: mustprogress nofree norecurse nosync nounwind willreturn memory(argmem: readwrite) uwtable
define void @lv_draw_buf_clear_flag(ptr noundef captures(none) %0, i32 noundef %1) local_unnamed_addr #6 {
  %3 = xor i32 %1, -1
  %4 = load i64, ptr %0, align 8
  %5 = trunc i64 %4 to i32
  %6 = shl i32 %3, 16
  %7 = and i32 %6, %5
  %8 = zext i32 %7 to i64
  %9 = and i64 %4, -4294901761
  %10 = or disjoint i64 %9, %8
  store i64 %10, ptr %0, align 8
  ret void
}